
increment-nocb.dylib:     file format mach-o-x86-64


Disassembly of section .text:

0000000000000eb0 <_inc_value>:
 eb0:	55                   	push   %rbp
 eb1:	48 89 e5             	mov    %rsp,%rbp
 eb4:	89 7d fc             	mov    %edi,-0x4(%rbp)
 eb7:	8b 45 fc             	mov    -0x4(%rbp),%eax
 eba:	48 63 c8             	movslq %eax,%rcx
 ebd:	48 8d 15 3c 01 00 00 	lea    0x13c(%rip),%rdx        # 1000 <_glob>
 ec4:	48 be 04 00 00 00 00 	movabs $0x4,%rsi
 ecb:	00 00 00 
 ece:	48 0f af ce          	imul   %rsi,%rcx
 ed2:	48 89 d6             	mov    %rdx,%rsi
 ed5:	48 01 ce             	add    %rcx,%rsi
 ed8:	8b 0e                	mov    (%rsi),%ecx
 eda:	83 c1 01             	add    $0x1,%ecx
 edd:	48 63 c0             	movslq %eax,%rax
 ee0:	48 be 04 00 00 00 00 	movabs $0x4,%rsi
 ee7:	00 00 00 
 eea:	48 0f af c6          	imul   %rsi,%rax
 eee:	48 01 c2             	add    %rax,%rdx
 ef1:	89 0a                	mov    %ecx,(%rdx)
 ef3:	5d                   	pop    %rbp
 ef4:	c3                   	retq   
 ef5:	0f 1f 44 00 00       	nopl   0x0(%rax,%rax,1)
 efa:	66 0f 1f 44 00 00    	nopw   0x0(%rax,%rax,1)

0000000000000f00 <_read_value>:
 f00:	55                   	push   %rbp
 f01:	48 89 e5             	mov    %rsp,%rbp
 f04:	89 7d fc             	mov    %edi,-0x4(%rbp)
 f07:	8b 45 fc             	mov    -0x4(%rbp),%eax
 f0a:	48 63 c0             	movslq %eax,%rax
 f0d:	48 8d 0d ec 00 00 00 	lea    0xec(%rip),%rcx        # 1000 <_glob>
 f14:	48 ba 04 00 00 00 00 	movabs $0x4,%rdx
 f1b:	00 00 00 
 f1e:	48 0f af c2          	imul   %rdx,%rax
 f22:	48 01 c1             	add    %rax,%rcx
 f25:	8b 01                	mov    (%rcx),%eax
 f27:	89 45 f4             	mov    %eax,-0xc(%rbp)
 f2a:	8b 45 f4             	mov    -0xc(%rbp),%eax
 f2d:	89 45 f8             	mov    %eax,-0x8(%rbp)
 f30:	8b 45 f8             	mov    -0x8(%rbp),%eax
 f33:	5d                   	pop    %rbp
 f34:	c3                   	retq   

Disassembly of section __TEXT.__unwind_info:

0000000000000f35 <__TEXT.__unwind_info>:
 f35:	01 00                	add    %eax,(%rax)
 f37:	00 00                	add    %al,(%rax)
 f39:	1c 00                	sbb    $0x0,%al
 f3b:	00 00                	add    %al,(%rax)
 f3d:	00 00                	add    %al,(%rax)
 f3f:	00 00                	add    %al,(%rax)
 f41:	1c 00                	sbb    $0x0,%al
 f43:	00 00                	add    %al,(%rax)
 f45:	00 00                	add    %al,(%rax)
 f47:	00 00                	add    %al,(%rax)
 f49:	1c 00                	sbb    $0x0,%al
 f4b:	00 00                	add    %al,(%rax)
 f4d:	02 00                	add    (%rax),%al
 f4f:	00 00                	add    %al,(%rax)
 f51:	b0 0e                	mov    $0xe,%al
 f53:	00 00                	add    %al,(%rax)
 f55:	34 00                	xor    $0x0,%al
 f57:	00 00                	add    %al,(%rax)
 f59:	34 00                	xor    $0x0,%al
 f5b:	00 00                	add    %al,(%rax)
 f5d:	36 0f 00 00          	sldt   %ss:(%rax)
 f61:	00 00                	add    %al,(%rax)
 f63:	00 00                	add    %al,(%rax)
 f65:	34 00                	xor    $0x0,%al
 f67:	00 00                	add    %al,(%rax)
 f69:	03 00                	add    (%rax),%eax
 f6b:	00 00                	add    %al,(%rax)
 f6d:	0c 00                	or     $0x0,%al
 f6f:	01 00                	add    %eax,(%rax)
 f71:	10 00                	adc    %al,(%rax)
 f73:	01 00                	add    %eax,(%rax)
 f75:	00 00                	add    %al,(%rax)
 f77:	00 00                	add    %al,(%rax)
 f79:	00 00                	add    %al,(%rax)
 f7b:	00 01                	add    %al,(%rcx)
